target datalayout = "e-m:e-p270:32:32-p271:32:32-p272:64:64-i64:64-i128:128-f80:128-n8:16:32:64-S128"
target triple = "x86_64-pc-linux-gnu"

%struct.Map_NodeStruct_t_ = type { ptr, ptr, i32, i32, i32, i32, [3 x i32], [3 x float], float, ptr, ptr, ptr, ptr, [2 x %struct.Map_TimeStruct_t_], [2 x %struct.Map_TimeStruct_t_], [2 x ptr], ptr, ptr, ptr }
%struct.Map_TimeStruct_t_ = type { float, float, float }
%struct.Map_ManStruct_t_ = type { ptr, i32, ptr, i32, ptr, i32, i32, ptr, ptr, ptr, ptr, ptr, ptr, ptr, ptr, i32, i32, i32, i32, float, float, float, float, i32, i32, float, i32, i32, i32, i32, ptr, [6 x [2 x i32]], [10 x [32 x i32]], [32 x i32], [32 x i32], ptr, ptr, ptr, ptr, ptr, ptr, i32, i32, i32, i32, i32, i32, i64, i64, i64, i64, i64, i64, i64, i64, i64, i64, i64 }
%struct.Map_NodeVecStruct_t_ = type { ptr, i32, i32 }

; Function Attrs: nounwind uwtable
define float @Map_MappingGetSwitching(ptr noundef %0) #0 {
  %2 = alloca ptr, align 8
  %3 = alloca ptr, align 8
  %4 = alloca float, align 4
  %5 = alloca i32, align 4
  store ptr %0, ptr %2, align 8, !tbaa !22
  call void @llvm.lifetime.start.p0(i64 8, ptr %3) #3
  call void @llvm.lifetime.start.p0(i64 4, ptr %4) #3
  store float 0.000000e+00, ptr %4, align 4, !tbaa !12
  call void @llvm.lifetime.start.p0(i64 4, ptr %5) #3
  store i32 0, ptr %5, align 4, !tbaa !10
  br label %6

6:                                                ; preds = %114, %1
  %7 = load i32, ptr %5, align 4, !tbaa !10
  %8 = load ptr, ptr %2, align 8, !tbaa !22
  %9 = getelementptr inbounds nuw %struct.Map_ManStruct_t_, ptr %8, i32 0, i32 8
  %10 = load ptr, ptr %9, align 8, !tbaa !23
  %11 = getelementptr inbounds nuw %struct.Map_NodeVecStruct_t_, ptr %10, i32 0, i32 1
  %12 = load i32, ptr %11, align 8, !tbaa !35
  %13 = icmp slt i32 %7, %12
  br i1 %13, label %14, label %117

14:                                               ; preds = %6
  %15 = load ptr, ptr %2, align 8, !tbaa !22
  %16 = getelementptr inbounds nuw %struct.Map_ManStruct_t_, ptr %15, i32 0, i32 8
  %17 = load ptr, ptr %16, align 8, !tbaa !23
  %18 = getelementptr inbounds nuw %struct.Map_NodeVecStruct_t_, ptr %17, i32 0, i32 0
  %19 = load ptr, ptr %18, align 8, !tbaa !37
  %20 = load i32, ptr %5, align 4, !tbaa !10
  %21 = sext i32 %20 to i64
  %22 = getelementptr inbounds ptr, ptr %19, i64 %21
  %23 = load ptr, ptr %22, align 8, !tbaa !3
  store ptr %23, ptr %3, align 8, !tbaa !3
  %24 = load ptr, ptr %3, align 8, !tbaa !3
  %25 = getelementptr inbounds nuw %struct.Map_NodeStruct_t_, ptr %24, i32 0, i32 6
  %26 = getelementptr inbounds [3 x i32], ptr %25, i64 0, i64 2
  %27 = load i32, ptr %26, align 8, !tbaa !10
  %28 = icmp eq i32 %27, 0
  br i1 %28, label %29, label %30

29:                                               ; preds = %14
  br label %114

30:                                               ; preds = %14
  %31 = load ptr, ptr %3, align 8, !tbaa !3
  %32 = call i32 @Map_NodeIsAnd(ptr noundef %31)
  %33 = icmp ne i32 %32, 0
  br i1 %33, label %34, label %83

34:                                               ; preds = %30
  %35 = load ptr, ptr %3, align 8, !tbaa !3
  %36 = getelementptr inbounds nuw %struct.Map_NodeStruct_t_, ptr %35, i32 0, i32 15
  %37 = getelementptr inbounds [2 x ptr], ptr %36, i64 0, i64 0
  %38 = load ptr, ptr %37, align 8, !tbaa !8
  %39 = icmp ne ptr %38, null
  br i1 %39, label %40, label %58

40:                                               ; preds = %34
  %41 = load ptr, ptr %3, align 8, !tbaa !3
  %42 = getelementptr inbounds nuw %struct.Map_NodeStruct_t_, ptr %41, i32 0, i32 6
  %43 = getelementptr inbounds [3 x i32], ptr %42, i64 0, i64 0
  %44 = load i32, ptr %43, align 8, !tbaa !10
  %45 = icmp sgt i32 %44, 0
  br i1 %45, label %52, label %46

46:                                               ; preds = %40
  %47 = load ptr, ptr %3, align 8, !tbaa !3
  %48 = getelementptr inbounds nuw %struct.Map_NodeStruct_t_, ptr %47, i32 0, i32 15
  %49 = getelementptr inbounds [2 x ptr], ptr %48, i64 0, i64 1
  %50 = load ptr, ptr %49, align 8, !tbaa !8
  %51 = icmp eq ptr %50, null
  br i1 %51, label %52, label %58

52:                                               ; preds = %46, %40
  %53 = load ptr, ptr %3, align 8, !tbaa !3
  %54 = getelementptr inbounds nuw %struct.Map_NodeStruct_t_, ptr %53, i32 0, i32 8
  %55 = load float, ptr %54, align 8, !tbaa !14
  %56 = load float, ptr %4, align 4, !tbaa !12
  %57 = fadd float %56, %55
  store float %57, ptr %4, align 4, !tbaa !12
  br label %58

58:                                               ; preds = %52, %46, %34
  %59 = load ptr, ptr %3, align 8, !tbaa !3
  %60 = getelementptr inbounds nuw %struct.Map_NodeStruct_t_, ptr %59, i32 0, i32 15
  %61 = getelementptr inbounds [2 x ptr], ptr %60, i64 0, i64 1
  %62 = load ptr, ptr %61, align 8, !tbaa !8
  %63 = icmp ne ptr %62, null
  br i1 %63, label %64, label %82

64:                                               ; preds = %58
  %65 = load ptr, ptr %3, align 8, !tbaa !3
  %66 = getelementptr inbounds nuw %struct.Map_NodeStruct_t_, ptr %65, i32 0, i32 6
  %67 = getelementptr inbounds [3 x i32], ptr %66, i64 0, i64 1
  %68 = load i32, ptr %67, align 4, !tbaa !10
  %69 = icmp sgt i32 %68, 0
  br i1 %69, label %76, label %70

70:                                               ; preds = %64
  %71 = load ptr, ptr %3, align 8, !tbaa !3
  %72 = getelementptr inbounds nuw %struct.Map_NodeStruct_t_, ptr %71, i32 0, i32 15
  %73 = getelementptr inbounds [2 x ptr], ptr %72, i64 0, i64 0
  %74 = load ptr, ptr %73, align 8, !tbaa !8
  %75 = icmp eq ptr %74, null
  br i1 %75, label %76, label %82

76:                                               ; preds = %70, %64
  %77 = load ptr, ptr %3, align 8, !tbaa !3
  %78 = getelementptr inbounds nuw %struct.Map_NodeStruct_t_, ptr %77, i32 0, i32 8
  %79 = load float, ptr %78, align 8, !tbaa !14
  %80 = load float, ptr %4, align 4, !tbaa !12
  %81 = fadd float %80, %79
  store float %81, ptr %4, align 4, !tbaa !12
  br label %82

82:                                               ; preds = %76, %70, %58
  br label %83

83:                                               ; preds = %82, %30
  %84 = load ptr, ptr %3, align 8, !tbaa !3
  %85 = getelementptr inbounds nuw %struct.Map_NodeStruct_t_, ptr %84, i32 0, i32 15
  %86 = getelementptr inbounds [2 x ptr], ptr %85, i64 0, i64 0
  %87 = load ptr, ptr %86, align 8, !tbaa !8
  %88 = icmp eq ptr %87, null
  br i1 %88, label %89, label %95

89:                                               ; preds = %83
  %90 = load ptr, ptr %3, align 8, !tbaa !3
  %91 = getelementptr inbounds nuw %struct.Map_NodeStruct_t_, ptr %90, i32 0, i32 6
  %92 = getelementptr inbounds [3 x i32], ptr %91, i64 0, i64 0
  %93 = load i32, ptr %92, align 8, !tbaa !10
  %94 = icmp sgt i32 %93, 0
  br i1 %94, label %107, label %95

95:                                               ; preds = %89, %83
  %96 = load ptr, ptr %3, align 8, !tbaa !3
  %97 = getelementptr inbounds nuw %struct.Map_NodeStruct_t_, ptr %96, i32 0, i32 15
  %98 = getelementptr inbounds [2 x ptr], ptr %97, i64 0, i64 1
  %99 = load ptr, ptr %98, align 8, !tbaa !8
  %100 = icmp eq ptr %99, null
  br i1 %100, label %101, label %113

101:                                              ; preds = %95
  %102 = load ptr, ptr %3, align 8, !tbaa !3
  %103 = getelementptr inbounds nuw %struct.Map_NodeStruct_t_, ptr %102, i32 0, i32 6
  %104 = getelementptr inbounds [3 x i32], ptr %103, i64 0, i64 1
  %105 = load i32, ptr %104, align 4, !tbaa !10
  %106 = icmp sgt i32 %105, 0
  br i1 %106, label %107, label %113

107:                                              ; preds = %101, %89
  %108 = load ptr, ptr %3, align 8, !tbaa !3
  %109 = getelementptr inbounds nuw %struct.Map_NodeStruct_t_, ptr %108, i32 0, i32 8
  %110 = load float, ptr %109, align 8, !tbaa !14
  %111 = load float, ptr %4, align 4, !tbaa !12
  %112 = fadd float %111, %110
  store float %112, ptr %4, align 4, !tbaa !12
  br label %113

113:                                              ; preds = %107, %101, %95
  br label %114

114:                                              ; preds = %113, %29
  %115 = load i32, ptr %5, align 4, !tbaa !10
  %116 = add nsw i32 %115, 1
  store i32 %116, ptr %5, align 4, !tbaa !10
  br label %6, !llvm.loop !38

117:                                              ; preds = %6
  store i32 0, ptr %5, align 4, !tbaa !10
  br label %118

118:                                              ; preds = %159, %117
  %119 = load i32, ptr %5, align 4, !tbaa !10
  %120 = load ptr, ptr %2, align 8, !tbaa !22
  %121 = getelementptr inbounds nuw %struct.Map_ManStruct_t_, ptr %120, i32 0, i32 5
  %122 = load i32, ptr %121, align 8, !tbaa !39
  %123 = icmp slt i32 %119, %122
  br i1 %123, label %124, label %162

124:                                              ; preds = %118
  %125 = load ptr, ptr %2, align 8, !tbaa !22
  %126 = getelementptr inbounds nuw %struct.Map_ManStruct_t_, ptr %125, i32 0, i32 4
  %127 = load ptr, ptr %126, align 8, !tbaa !40
  %128 = load i32, ptr %5, align 4, !tbaa !10
  %129 = sext i32 %128 to i64
  %130 = getelementptr inbounds ptr, ptr %127, i64 %129
  %131 = load ptr, ptr %130, align 8, !tbaa !3
  %132 = call i32 @Map_NodeIsVar(ptr noundef %131)
  %133 = icmp ne i32 %132, 0
  br i1 %133, label %134, label %158

134:                                              ; preds = %124
  %135 = load ptr, ptr %2, align 8, !tbaa !22
  %136 = getelementptr inbounds nuw %struct.Map_ManStruct_t_, ptr %135, i32 0, i32 4
  %137 = load ptr, ptr %136, align 8, !tbaa !40
  %138 = load i32, ptr %5, align 4, !tbaa !10
  %139 = sext i32 %138 to i64
  %140 = getelementptr inbounds ptr, ptr %137, i64 %139
  %141 = load ptr, ptr %140, align 8, !tbaa !3
  %142 = ptrtoint ptr %141 to i64
  %143 = and i64 %142, 1
  %144 = trunc i64 %143 to i32
  %145 = icmp ne i32 %144, 0
  br i1 %145, label %158, label %146

146:                                              ; preds = %134
  %147 = load ptr, ptr %2, align 8, !tbaa !22
  %148 = getelementptr inbounds nuw %struct.Map_ManStruct_t_, ptr %147, i32 0, i32 4
  %149 = load ptr, ptr %148, align 8, !tbaa !40
  %150 = load i32, ptr %5, align 4, !tbaa !10
  %151 = sext i32 %150 to i64
  %152 = getelementptr inbounds ptr, ptr %149, i64 %151
  %153 = load ptr, ptr %152, align 8, !tbaa !3
  %154 = getelementptr inbounds nuw %struct.Map_NodeStruct_t_, ptr %153, i32 0, i32 8
  %155 = load float, ptr %154, align 8, !tbaa !14
  %156 = load float, ptr %4, align 4, !tbaa !12
  %157 = fadd float %156, %155
  store float %157, ptr %4, align 4, !tbaa !12
  br label %158

158:                                              ; preds = %146, %134, %124
  br label %159

159:                                              ; preds = %158
  %160 = load i32, ptr %5, align 4, !tbaa !10
  %161 = add nsw i32 %160, 1
  store i32 %161, ptr %5, align 4, !tbaa !10
  br label %118, !llvm.loop !41

162:                                              ; preds = %118
  %163 = load float, ptr %4, align 4, !tbaa !12
  call void @llvm.lifetime.end.p0(i64 4, ptr %5) #3
  call void @llvm.lifetime.end.p0(i64 4, ptr %4) #3
  call void @llvm.lifetime.end.p0(i64 8, ptr %3) #3
  ret float %163
}