; Function Attrs: nounwind uwtable
define float @Map_MappingGetSwitching(ptr noundef readonly captures(none) %0) local_unnamed_addr #0 {
  %2 = getelementptr inbounds nuw i8, ptr %0, i64 56
  %3 = load ptr, ptr %2, align 8, !tbaa !21
  %4 = getelementptr inbounds nuw i8, ptr %3, i64 8
  %5 = load i32, ptr %4, align 8, !tbaa !33
  %6 = icmp sgt i32 %5, 0
  br i1 %6, label %.lr.ph, label %.preheader

.preheader:                                       ; preds = %59, %1
  %.033.lcssa = phi float [ 0.000000e+00, %1 ], [ %.134, %59 ]
  %7 = getelementptr inbounds nuw i8, ptr %0, i64 40
  %8 = load i32, ptr %7, align 8, !tbaa !35
  %9 = icmp sgt i32 %8, 0
  br i1 %9, label %.lr.ph43, label %._crit_edge

.lr.ph43:                                         ; preds = %.preheader
  %10 = getelementptr inbounds nuw i8, ptr %0, i64 32
  br label %65

.lr.ph:                                           ; preds = %1, %59
  %indvars.iv = phi i64 [ %indvars.iv.next, %59 ], [ 0, %1 ]
  %11 = phi ptr [ %60, %59 ], [ %3, %1 ]
  %.03339 = phi float [ %.134, %59 ], [ 0.000000e+00, %1 ]
  %12 = load ptr, ptr %11, align 8, !tbaa !36
  %13 = getelementptr inbounds nuw ptr, ptr %12, i64 %indvars.iv
  %14 = load ptr, ptr %13, align 8, !tbaa !16
  %15 = getelementptr inbounds nuw i8, ptr %14, i64 32
  %16 = getelementptr inbounds nuw i8, ptr %14, i64 40
  %17 = load i32, ptr %16, align 8, !tbaa !18
  %18 = icmp eq i32 %17, 0
  br i1 %18, label %59, label %19

19:                                               ; preds = %.lr.ph
  %20 = tail call i32 @Map_NodeIsAnd(ptr noundef nonnull %14) #2
  %.not36 = icmp eq i32 %20, 0
  %.phi.trans.insert = getelementptr inbounds nuw i8, ptr %14, i64 144
  %.pre = load ptr, ptr %.phi.trans.insert, align 8, !tbaa !17
  br i1 %.not36, label %._crit_edge49, label %21

21:                                               ; preds = %19
  %.not37 = icmp eq ptr %.pre, null
  br i1 %.not37, label %33, label %22

22:                                               ; preds = %21
  %23 = load i32, ptr %15, align 8, !tbaa !18
  %24 = icmp sgt i32 %23, 0
  br i1 %24, label %29, label %25

25:                                               ; preds = %22
  %26 = getelementptr inbounds nuw i8, ptr %14, i64 152
  %27 = load ptr, ptr %26, align 8, !tbaa !17
  %28 = icmp eq ptr %27, null
  br i1 %28, label %29, label %33

29:                                               ; preds = %25, %22
  %30 = getelementptr inbounds nuw i8, ptr %14, i64 56
  %31 = load float, ptr %30, align 8, !tbaa !3
  %32 = fadd float %.03339, %31
  br label %33

33:                                               ; preds = %29, %25, %21
  %.3 = phi float [ %32, %29 ], [ %.03339, %25 ], [ %.03339, %21 ]
  %34 = getelementptr inbounds nuw i8, ptr %14, i64 152
  %35 = load ptr, ptr %34, align 8, !tbaa !17
  %.not38 = icmp eq ptr %35, null
  br i1 %.not38, label %._crit_edge49, label %36

36:                                               ; preds = %33
  %37 = getelementptr inbounds nuw i8, ptr %14, i64 36
  %38 = load i32, ptr %37, align 4, !tbaa !18
  %39 = icmp sgt i32 %38, 0
  %brmerge = or i1 %.not37, %39
  br i1 %brmerge, label %40, label %.thread

40:                                               ; preds = %36
  %41 = getelementptr inbounds nuw i8, ptr %14, i64 56
  %42 = load float, ptr %41, align 8, !tbaa !3
  %43 = fadd float %.3, %42
  br label %._crit_edge49

._crit_edge49:                                    ; preds = %19, %33, %40
  %.2 = phi float [ %43, %40 ], [ %.3, %33 ], [ %.03339, %19 ]
  %44 = icmp eq ptr %.pre, null
  br i1 %44, label %45, label %.thread

45:                                               ; preds = %._crit_edge49
  %46 = load i32, ptr %15, align 8, !tbaa !18
  %47 = icmp sgt i32 %46, 0
  br i1 %47, label %55, label %.thread

.thread:                                          ; preds = %36, %45, %._crit_edge49
  %.252 = phi float [ %.2, %45 ], [ %.2, %._crit_edge49 ], [ %.3, %36 ]
  %48 = getelementptr inbounds nuw i8, ptr %14, i64 152
  %49 = load ptr, ptr %48, align 8, !tbaa !17
  %50 = icmp eq ptr %49, null
  br i1 %50, label %51, label %59

51:                                               ; preds = %.thread
  %52 = getelementptr inbounds nuw i8, ptr %14, i64 36
  %53 = load i32, ptr %52, align 4, !tbaa !18
  %54 = icmp sgt i32 %53, 0
  br i1 %54, label %55, label %59

55:                                               ; preds = %51, %45
  %.251 = phi float [ %.252, %51 ], [ %.2, %45 ]
  %56 = getelementptr inbounds nuw i8, ptr %14, i64 56
  %57 = load float, ptr %56, align 8, !tbaa !3
  %58 = fadd float %.251, %57
  br label %59

59:                                               ; preds = %.thread, %51, %55, %.lr.ph
  %.134 = phi float [ %.03339, %.lr.ph ], [ %58, %55 ], [ %.252, %51 ], [ %.252, %.thread ]
  %indvars.iv.next = add nuw nsw i64 %indvars.iv, 1
  %60 = load ptr, ptr %2, align 8, !tbaa !21
  %61 = getelementptr inbounds nuw i8, ptr %60, i64 8
  %62 = load i32, ptr %61, align 8, !tbaa !33
  %63 = sext i32 %62 to i64
  %64 = icmp slt i64 %indvars.iv.next, %63
  br i1 %64, label %.lr.ph, label %.preheader, !llvm.loop !37

65:                                               ; preds = %.lr.ph43, %80
  %indvars.iv46 = phi i64 [ 0, %.lr.ph43 ], [ %indvars.iv.next47, %80 ]
  %.441 = phi float [ %.033.lcssa, %.lr.ph43 ], [ %.5, %80 ]
  %66 = load ptr, ptr %10, align 8, !tbaa !38
  %67 = getelementptr inbounds nuw ptr, ptr %66, i64 %indvars.iv46
  %68 = load ptr, ptr %67, align 8, !tbaa !16
  %69 = tail call i32 @Map_NodeIsVar(ptr noundef %68) #2
  %.not = icmp eq i32 %69, 0
  br i1 %.not, label %80, label %70

70:                                               ; preds = %65
  %71 = load ptr, ptr %10, align 8, !tbaa !38
  %72 = getelementptr inbounds nuw ptr, ptr %71, i64 %indvars.iv46
  %73 = load ptr, ptr %72, align 8, !tbaa !16
  %74 = ptrtoint ptr %73 to i64
  %75 = and i64 %74, 1
  %.not35 = icmp eq i64 %75, 0
  br i1 %.not35, label %76, label %80

76:                                               ; preds = %70
  %77 = getelementptr inbounds nuw i8, ptr %73, i64 56
  %78 = load float, ptr %77, align 8, !tbaa !3
  %79 = fadd float %.441, %78
  br label %80

80:                                               ; preds = %65, %70, %76
  %.5 = phi float [ %.441, %70 ], [ %79, %76 ], [ %.441, %65 ]
  %indvars.iv.next47 = add nuw nsw i64 %indvars.iv46, 1
  %81 = load i32, ptr %7, align 8, !tbaa !35
  %82 = sext i32 %81 to i64
  %83 = icmp slt i64 %indvars.iv.next47, %82
  br i1 %83, label %65, label %._crit_edge, !llvm.loop !39

._crit_edge:                                      ; preds = %80, %.preheader
  %.4.lcssa = phi float [ %.033.lcssa, %.preheader ], [ %.5, %80 ]
  ret float %.4.lcssa
}